; Function Attrs: mustprogress nounwind uwtable
define hidden void @_ZN5ciEnv23record_call_site_methodEP6ThreadP6Method(ptr noundef nonnull align 8 dereferenceable(1265) %0, ptr nocapture noundef readnone %1, ptr nocapture noundef readonly %2) local_unnamed_addr #0 align 2 {
  %4 = alloca %class.RecordLocation, align 8
  %5 = getelementptr inbounds i8, ptr %2, i64 8
  %6 = load ptr, ptr %5, align 8
  %7 = getelementptr inbounds i8, ptr %6, i64 8
  %8 = load ptr, ptr %7, align 8
  %9 = getelementptr inbounds i8, ptr %8, i64 24
  %10 = load ptr, ptr %9, align 8
  %11 = getelementptr inbounds i8, ptr %10, i64 164
  %.sroa.0.0.copyload.i.i = load i32, ptr %11, align 4
  %12 = and i32 %.sroa.0.0.copyload.i.i, 67108864
  %.not = icmp eq i32 %12, 0
  br i1 %.not, label %37, label %13

13:                                               ; preds = %3
  call void (ptr, ptr, ptr, ...) @_ZN14RecordLocationC2EP5ciEnvPKcz(ptr noundef nonnull align 8 dereferenceable(8) %4, ptr noundef nonnull %0, ptr noundef nonnull @.str.34)
  %.sroa.0.0.copyload.i.i.i = load i32, ptr %11, align 4
  %14 = and i32 %.sroa.0.0.copyload.i.i.i, 67108864
  %.not.i = icmp eq i32 %14, 0
  br i1 %.not.i, label %_ZN5ciEnv20record_best_dyno_locEPK13InstanceKlass.exit, label %15

15:                                               ; preds = %13
  %16 = getelementptr inbounds i8, ptr %0, i64 224
  %17 = load ptr, ptr %16, align 8
  %18 = load i32, ptr %17, align 4
  %.not20.i.i.i = icmp slt i32 %18, 1
  br i1 %.not20.i.i.i, label %.loopexit.i, label %.lr.ph.i.i.i

.lr.ph.i.i.i:                                     ; preds = %15
  %19 = add nsw i32 %18, -1
  %20 = getelementptr inbounds i8, ptr %17, i64 8
  %21 = load ptr, ptr %20, align 8
  br label %22

22:                                               ; preds = %35, %.lr.ph.i.i.i
  %.01522.i.i.i = phi i32 [ 0, %.lr.ph.i.i.i ], [ %.1.i.i.i, %35 ]
  %.01621.i.i.i = phi i32 [ %19, %.lr.ph.i.i.i ], [ %.117.i.i.i, %35 ]
  %23 = add i32 %.01621.i.i.i, %.01522.i.i.i
  %24 = lshr i32 %23, 1
  %25 = zext nneg i32 %24 to i64
  %26 = getelementptr inbounds ptr, ptr %21, i64 %25
  %27 = load ptr, ptr %26, align 8
  %28 = icmp ult ptr %27, %10
  br i1 %28, label %29, label %31

29:                                               ; preds = %22
  %30 = add nuw nsw i32 %24, 1
  br label %35

31:                                               ; preds = %22
  %32 = icmp ugt ptr %27, %10
  br i1 %32, label %33, label %_ZN5ciEnv20record_best_dyno_locEPK13InstanceKlass.exit

33:                                               ; preds = %31
  %34 = add nsw i32 %24, -1
  br label %35

35:                                               ; preds = %33, %29
  %.117.i.i.i = phi i32 [ %.01621.i.i.i, %29 ], [ %34, %33 ]
  %.1.i.i.i = phi i32 [ %30, %29 ], [ %.01522.i.i.i, %33 ]
  %.not.i.i.i = icmp slt i32 %.117.i.i.i, %.1.i.i.i
  br i1 %.not.i.i.i, label %.loopexit.i, label %22, !llvm.loop !11

.loopexit.i:                                      ; preds = %35, %15
  call void @_ZN5ciEnv12set_dyno_locEPK13InstanceKlass(ptr noundef nonnull align 8 dereferenceable(1265) %0, ptr noundef nonnull %10)
  br label %_ZN5ciEnv20record_best_dyno_locEPK13InstanceKlass.exit

_ZN5ciEnv20record_best_dyno_locEPK13InstanceKlass.exit: ; preds = %31, %13, %.loopexit.i
  %36 = load ptr, ptr %4, align 8
  store i8 0, ptr %36, align 1
  br label %37

37:                                               ; preds = %3, %_ZN5ciEnv20record_best_dyno_locEPK13InstanceKlass.exit
  ret void
}